; Function Attrs: mustprogress nofree norecurse nosync nounwind memory(readwrite, inaccessiblemem: none) uwtable
define hidden void @_ZNK3sls12bv_valuation11get_variantERNS_5bvectER10random_gen(ptr noundef nonnull readonly align 8 captures(none) dereferenceable(184) %0, ptr noundef nonnull readonly align 8 captures(none) dereferenceable(20) %1, ptr noundef nonnull align 4 captures(none) dereferenceable(4) %2) local_unnamed_addr #10 align 2 {
  %4 = getelementptr inbounds nuw i8, ptr %0, i64 156
  %5 = load i32, ptr %4, align 4, !tbaa !68
  %.not = icmp eq i32 %5, 0
  br i1 %.not, label %._crit_edge, label %.lr.ph

.lr.ph:                                           ; preds = %3
  %6 = getelementptr inbounds nuw i8, ptr %0, i64 72
  %7 = load ptr, ptr %6, align 8, !tbaa !14
  %8 = load ptr, ptr %0, align 8, !tbaa !14
  %9 = load ptr, ptr %1, align 8, !tbaa !14
  br label %19

._crit_edge:                                      ; preds = %_ZN3sls12bv_valuation11random_bitsER10random_gen.exit, %3
  tail call void @_ZNK3sls12bv_valuation16repair_sign_bitsERNS_5bvectE(ptr noundef nonnull align 8 dereferenceable(184) %0, ptr noundef nonnull align 8 dereferenceable(20) %1)
  %10 = getelementptr inbounds nuw i8, ptr %0, i64 148
  %11 = load i32, ptr %10, align 4, !tbaa !69
  %12 = load i32, ptr %4, align 4, !tbaa !68
  %13 = add i32 %12, -1
  %14 = load ptr, ptr %1, align 8, !tbaa !14
  %15 = zext i32 %13 to i64
  %16 = getelementptr inbounds nuw i32, ptr %14, i64 %15
  %17 = load i32, ptr %16, align 4, !tbaa !15
  %18 = and i32 %17, %11
  store i32 %18, ptr %16, align 4, !tbaa !15
  ret void

19:                                               ; preds = %.lr.ph, %_ZN3sls12bv_valuation11random_bitsER10random_gen.exit
  %indvars.iv = phi i64 [ 0, %.lr.ph ], [ %indvars.iv.next, %_ZN3sls12bv_valuation11random_bitsER10random_gen.exit ]
  %.promoted.i = load i32, ptr %2, align 4, !tbaa !83
  br label %20

20:                                               ; preds = %20, %19
  %.07.i = phi i32 [ 0, %19 ], [ %29, %20 ]
  %.056.i = phi i32 [ 0, %19 ], [ %28, %20 ]
  %21 = phi i32 [ %.promoted.i, %19 ], [ %23, %20 ]
  %22 = mul i32 %21, 214013
  %23 = add i32 %22, 2531011
  %24 = lshr i32 %23, 16
  %25 = and i32 %24, 32767
  %26 = shl nuw nsw i32 %.07.i, 3
  %27 = shl i32 %25, %26
  %28 = xor i32 %27, %.056.i
  %29 = add nuw nsw i32 %.07.i, 1
  %exitcond.not.i = icmp eq i32 %29, 4
  br i1 %exitcond.not.i, label %_ZN3sls12bv_valuation11random_bitsER10random_gen.exit, label %20, !llvm.loop !89

_ZN3sls12bv_valuation11random_bitsER10random_gen.exit: ; preds = %20
  store i32 %23, ptr %2, align 4, !tbaa !83
  %30 = getelementptr inbounds nuw i32, ptr %7, i64 %indvars.iv
  %31 = load i32, ptr %30, align 4, !tbaa !15
  %32 = xor i32 %31, -1
  %33 = and i32 %28, %32
  %34 = getelementptr inbounds nuw i32, ptr %8, i64 %indvars.iv
  %35 = load i32, ptr %34, align 4, !tbaa !15
  %36 = and i32 %35, %31
  %37 = or i32 %36, %33
  %38 = getelementptr inbounds nuw i32, ptr %9, i64 %indvars.iv
  store i32 %37, ptr %38, align 4, !tbaa !15
  %indvars.iv.next = add nuw nsw i64 %indvars.iv, 1
  %39 = load i32, ptr %4, align 4, !tbaa !68
  %40 = zext i32 %39 to i64
  %41 = icmp samesign ult i64 %indvars.iv.next, %40
  br i1 %41, label %19, label %._crit_edge, !llvm.loop !113
}